; ModuleID = '46/2756.c'
source_filename = "46/2756.c"
target datalayout = "e-m:e-p270:32:32-p271:32:32-p272:64:64-i64:64-f80:128-n8:16:32:64-S128"
target triple = "x86_64-pc-linux-gnu"

@.str = private unnamed_addr constant [4 x i8] c"%d\0A\00", align 1
@.str.1 = private unnamed_addr constant [6 x i8] c"%d %d\00", align 1
@.str.2 = private unnamed_addr constant [3 x i8] c"%d\00", align 1

; Function Attrs: noinline nounwind uwtable
define dso_local void @print([100 x i32]* %0, i32 %1, i32 %2, i32 %3, i32 %4) #0 {
  %6 = alloca [100 x i32]*, align 8
  %7 = alloca i32, align 4
  %8 = alloca i32, align 4
  %9 = alloca i32, align 4
  %10 = alloca i32, align 4
  %11 = alloca i32, align 4
  store [100 x i32]* %0, [100 x i32]** %6, align 8
  store i32 %1, i32* %7, align 4
  store i32 %2, i32* %8, align 4
  store i32 %3, i32* %9, align 4
  store i32 %4, i32* %10, align 4
  %12 = load i32, i32* %10, align 4
  store i32 %12, i32* %11, align 4
  br label %13

13:                                               ; preds = %27, %5
  %14 = load i32, i32* %11, align 4
  %15 = load i32, i32* %8, align 4
  %16 = icmp sle i32 %14, %15
  br i1 %16, label %17, label %30

17:                                               ; preds = %13
  %18 = load [100 x i32]*, [100 x i32]** %6, align 8
  %19 = load i32, i32* %9, align 4
  %20 = sext i32 %19 to i64
  %21 = getelementptr inbounds [100 x i32], [100 x i32]* %18, i64 %20
  %22 = load i32, i32* %11, align 4
  %23 = sext i32 %22 to i64
  %24 = getelementptr inbounds [100 x i32], [100 x i32]* %21, i64 0, i64 %23
  %25 = load i32, i32* %24, align 4
  %26 = call i32 (i8*, ...) @printf(i8* getelementptr inbounds ([4 x i8], [4 x i8]* @.str, i64 0, i64 0), i32 %25)
  br label %27

27:                                               ; preds = %17
  %28 = load i32, i32* %11, align 4
  %29 = add nsw i32 %28, 1
  store i32 %29, i32* %11, align 4
  br label %13

30:                                               ; preds = %13
  %31 = load i32, i32* %9, align 4
  %32 = add nsw i32 %31, 1
  store i32 %32, i32* %11, align 4
  br label %33

33:                                               ; preds = %47, %30
  %34 = load i32, i32* %11, align 4
  %35 = load i32, i32* %7, align 4
  %36 = icmp sle i32 %34, %35
  br i1 %36, label %37, label %50

37:                                               ; preds = %33
  %38 = load [100 x i32]*, [100 x i32]** %6, align 8
  %39 = load i32, i32* %11, align 4
  %40 = sext i32 %39 to i64
  %41 = getelementptr inbounds [100 x i32], [100 x i32]* %38, i64 %40
  %42 = load i32, i32* %8, align 4
  %43 = sext i32 %42 to i64
  %44 = getelementptr inbounds [100 x i32], [100 x i32]* %41, i64 0, i64 %43
  %45 = load i32, i32* %44, align 4
  %46 = call i32 (i8*, ...) @printf(i8* getelementptr inbounds ([4 x i8], [4 x i8]* @.str, i64 0, i64 0), i32 %45)
  br label %47

47:                                               ; preds = %37
  %48 = load i32, i32* %11, align 4
  %49 = add nsw i32 %48, 1
  store i32 %49, i32* %11, align 4
  br label %33

50:                                               ; preds = %33
  %51 = load i32, i32* %7, align 4
  %52 = load i32, i32* %9, align 4
  %53 = icmp sgt i32 %51, %52
  br i1 %53, label %54, label %75

54:                                               ; preds = %50
  %55 = load i32, i32* %8, align 4
  %56 = sub nsw i32 %55, 1
  store i32 %56, i32* %11, align 4
  br label %57

57:                                               ; preds = %71, %54
  %58 = load i32, i32* %11, align 4
  %59 = load i32, i32* %10, align 4
  %60 = icmp sge i32 %58, %59
  br i1 %60, label %61, label %74

61:                                               ; preds = %57
  %62 = load [100 x i32]*, [100 x i32]** %6, align 8
  %63 = load i32, i32* %7, align 4
  %64 = sext i32 %63 to i64
  %65 = getelementptr inbounds [100 x i32], [100 x i32]* %62, i64 %64
  %66 = load i32, i32* %11, align 4
  %67 = sext i32 %66 to i64
  %68 = getelementptr inbounds [100 x i32], [100 x i32]* %65, i64 0, i64 %67
  %69 = load i32, i32* %68, align 4
  %70 = call i32 (i8*, ...) @printf(i8* getelementptr inbounds ([4 x i8], [4 x i8]* @.str, i64 0, i64 0), i32 %69)
  br label %71

71:                                               ; preds = %61
  %72 = load i32, i32* %11, align 4
  %73 = add nsw i32 %72, -1
  store i32 %73, i32* %11, align 4
  br label %57

74:                                               ; preds = %57
  br label %75

75:                                               ; preds = %74, %50
  %76 = load i32, i32* %8, align 4
  %77 = load i32, i32* %10, align 4
  %78 = icmp sgt i32 %76, %77
  br i1 %78, label %79, label %101

79:                                               ; preds = %75
  %80 = load i32, i32* %7, align 4
  %81 = sub nsw i32 %80, 1
  store i32 %81, i32* %11, align 4
  br label %82

82:                                               ; preds = %97, %79
  %83 = load i32, i32* %11, align 4
  %84 = load i32, i32* %9, align 4
  %85 = add nsw i32 %84, 1
  %86 = icmp sge i32 %83, %85
  br i1 %86, label %87, label %100

87:                                               ; preds = %82
  %88 = load [100 x i32]*, [100 x i32]** %6, align 8
  %89 = load i32, i32* %11, align 4
  %90 = sext i32 %89 to i64
  %91 = getelementptr inbounds [100 x i32], [100 x i32]* %88, i64 %90
  %92 = load i32, i32* %10, align 4
  %93 = sext i32 %92 to i64
  %94 = getelementptr inbounds [100 x i32], [100 x i32]* %91, i64 0, i64 %93
  %95 = load i32, i32* %94, align 4
  %96 = call i32 (i8*, ...) @printf(i8* getelementptr inbounds ([4 x i8], [4 x i8]* @.str, i64 0, i64 0), i32 %95)
  br label %97

97:                                               ; preds = %87
  %98 = load i32, i32* %11, align 4
  %99 = add nsw i32 %98, -1
  store i32 %99, i32* %11, align 4
  br label %82

100:                                              ; preds = %82
  br label %101

101:                                              ; preds = %100, %75
  %102 = load i32, i32* %7, align 4
  %103 = add nsw i32 %102, -1
  store i32 %103, i32* %7, align 4
  %104 = load i32, i32* %8, align 4
  %105 = add nsw i32 %104, -1
  store i32 %105, i32* %8, align 4
  %106 = load i32, i32* %9, align 4
  %107 = add nsw i32 %106, 1
  store i32 %107, i32* %9, align 4
  %108 = load i32, i32* %10, align 4
  %109 = add nsw i32 %108, 1
  store i32 %109, i32* %10, align 4
  %110 = load i32, i32* %7, align 4
  %111 = load i32, i32* %9, align 4
  %112 = sub nsw i32 %110, %111
  %113 = icmp sge i32 %112, 0
  br i1 %113, label %114, label %125

114:                                              ; preds = %101
  %115 = load i32, i32* %8, align 4
  %116 = load i32, i32* %10, align 4
  %117 = sub nsw i32 %115, %116
  %118 = icmp sge i32 %117, 0
  br i1 %118, label %119, label %125

119:                                              ; preds = %114
  %120 = load [100 x i32]*, [100 x i32]** %6, align 8
  %121 = load i32, i32* %7, align 4
  %122 = load i32, i32* %8, align 4
  %123 = load i32, i32* %9, align 4
  %124 = load i32, i32* %10, align 4
  call void @print([100 x i32]* %120, i32 %121, i32 %122, i32 %123, i32 %124)
  br label %125

125:                                              ; preds = %119, %114, %101
  ret void
}

declare dso_local i32 @printf(i8*, ...) #1

; Function Attrs: noinline nounwind uwtable
define dso_local void @main() #0 {
  %1 = alloca i32, align 4
  %2 = alloca i32, align 4
  %3 = alloca i32, align 4
  %4 = alloca i32, align 4
  %5 = alloca [100 x [100 x i32]], align 16
  %6 = call i32 (i8*, ...) @__isoc99_scanf(i8* getelementptr inbounds ([6 x i8], [6 x i8]* @.str.1, i64 0, i64 0), i32* %2, i32* %1)
  store i32 0, i32* %3, align 4
  br label %7

7:                                                ; preds = %28, %0
  %8 = load i32, i32* %3, align 4
  %9 = load i32, i32* %2, align 4
  %10 = icmp slt i32 %8, %9
  br i1 %10, label %11, label %31

11:                                               ; preds = %7
  store i32 0, i32* %4, align 4
  br label %12

12:                                               ; preds = %24, %11
  %13 = load i32, i32* %4, align 4
  %14 = load i32, i32* %1, align 4
  %15 = icmp slt i32 %13, %14
  br i1 %15, label %16, label %27

16:                                               ; preds = %12
  %17 = load i32, i32* %3, align 4
  %18 = sext i32 %17 to i64
  %19 = getelementptr inbounds [100 x [100 x i32]], [100 x [100 x i32]]* %5, i64 0, i64 %18
  %20 = load i32, i32* %4, align 4
  %21 = sext i32 %20 to i64
  %22 = getelementptr inbounds [100 x i32], [100 x i32]* %19, i64 0, i64 %21
  %23 = call i32 (i8*, ...) @__isoc99_scanf(i8* getelementptr inbounds ([3 x i8], [3 x i8]* @.str.2, i64 0, i64 0), i32* %22)
  br label %24

24:                                               ; preds = %16
  %25 = load i32, i32* %4, align 4
  %26 = add nsw i32 %25, 1
  store i32 %26, i32* %4, align 4
  br label %12

27:                                               ; preds = %12
  br label %28

28:                                               ; preds = %27
  %29 = load i32, i32* %3, align 4
  %30 = add nsw i32 %29, 1
  store i32 %30, i32* %3, align 4
  br label %7

31:                                               ; preds = %7
  %32 = getelementptr inbounds [100 x [100 x i32]], [100 x [100 x i32]]* %5, i64 0, i64 0
  %33 = load i32, i32* %2, align 4
  %34 = sub nsw i32 %33, 1
  %35 = load i32, i32* %1, align 4
  %36 = sub nsw i32 %35, 1
  call void @print([100 x i32]* %32, i32 %34, i32 %36, i32 0, i32 0)
  ret void
}

declare dso_local i32 @__isoc99_scanf(i8*, ...) #1


!llvm.module.flags = !{!0}
!llvm.ident = !{!1}

!0 = !{i32 1, !"wchar_size", i32 4}
!1 = !{!"clang version 10.0.0-4ubuntu1 "}
