; ModuleID = 'source-C-CXX/45/2756.c'
source_filename = "source-C-CXX/45/2756.c"
target datalayout = "e-m:e-p270:32:32-p271:32:32-p272:64:64-i64:64-f80:128-n8:16:32:64-S128"
target triple = "x86_64-pc-linux-gnu"

@.str = private unnamed_addr constant [4 x i8] c"%d\0A\00", align 1
@.str.1 = private unnamed_addr constant [6 x i8] c"%d %d\00", align 1
@.str.2 = private unnamed_addr constant [3 x i8] c"%d\00", align 1

; Function Attrs: nofree nounwind sspstrong uwtable
define dso_local void @print([100 x i32]* nocapture readonly %0, i32 %1, i32 %2, i32 %3, i32 %4) local_unnamed_addr #0 {
  %6 = sext i32 %4 to i64
  %7 = sext i32 %2 to i64
  %8 = sext i32 %1 to i64
  %9 = sext i32 %3 to i64
  br label %10

10:                                               ; preds = %62, %5
  %11 = phi i64 [ %27, %62 ], [ %9, %5 ]
  %12 = phi i64 [ %64, %62 ], [ %8, %5 ]
  %13 = phi i64 [ %63, %62 ], [ %7, %5 ]
  %14 = phi i32 [ %16, %62 ], [ %3, %5 ]
  %15 = phi i64 [ %58, %62 ], [ %6, %5 ]
  %16 = add i32 %14, 1
  %17 = sext i32 %16 to i64
  %18 = icmp sgt i64 %15, %13
  br i1 %18, label %26, label %19

19:                                               ; preds = %10, %19
  %20 = phi i64 [ %24, %19 ], [ %15, %10 ]
  %21 = getelementptr inbounds [100 x i32], [100 x i32]* %0, i64 %11, i64 %20
  %22 = load i32, i32* %21, align 4, !tbaa !5
  %23 = tail call i32 (i8*, ...) @printf(i8* nonnull dereferenceable(1) getelementptr inbounds ([4 x i8], [4 x i8]* @.str, i64 0, i64 0), i32 %22)
  %24 = add nsw i64 %20, 1
  %25 = icmp slt i64 %20, %13
  br i1 %25, label %19, label %26, !llvm.loop !9

26:                                               ; preds = %19, %10
  %27 = add nsw i64 %11, 1
  %28 = icmp slt i64 %11, %12
  br i1 %28, label %29, label %46

29:                                               ; preds = %26, %29
  %30 = phi i64 [ %34, %29 ], [ %17, %26 ]
  %31 = getelementptr inbounds [100 x i32], [100 x i32]* %0, i64 %30, i64 %13
  %32 = load i32, i32* %31, align 4, !tbaa !5
  %33 = tail call i32 (i8*, ...) @printf(i8* nonnull dereferenceable(1) getelementptr inbounds ([4 x i8], [4 x i8]* @.str, i64 0, i64 0), i32 %32)
  %34 = add nsw i64 %30, 1
  %35 = icmp slt i64 %30, %12
  br i1 %35, label %29, label %36, !llvm.loop !11

36:                                               ; preds = %29
  %37 = icmp sgt i64 %13, %15
  %38 = select i1 %28, i1 %37, i1 false
  br i1 %38, label %39, label %46

39:                                               ; preds = %36, %39
  %40 = phi i64 [ %41, %39 ], [ %13, %36 ]
  %41 = add nsw i64 %40, -1
  %42 = getelementptr inbounds [100 x i32], [100 x i32]* %0, i64 %12, i64 %41
  %43 = load i32, i32* %42, align 4, !tbaa !5
  %44 = tail call i32 (i8*, ...) @printf(i8* nonnull dereferenceable(1) getelementptr inbounds ([4 x i8], [4 x i8]* @.str, i64 0, i64 0), i32 %43)
  %45 = icmp sgt i64 %41, %15
  br i1 %45, label %39, label %46, !llvm.loop !12

46:                                               ; preds = %39, %26, %36
  %47 = icmp sgt i64 %13, %15
  %48 = icmp sgt i64 %12, %27
  %49 = select i1 %47, i1 %48, i1 false
  br i1 %49, label %50, label %57

50:                                               ; preds = %46, %50
  %51 = phi i64 [ %52, %50 ], [ %12, %46 ]
  %52 = add nsw i64 %51, -1
  %53 = getelementptr inbounds [100 x i32], [100 x i32]* %0, i64 %52, i64 %15
  %54 = load i32, i32* %53, align 4, !tbaa !5
  %55 = tail call i32 (i8*, ...) @printf(i8* nonnull dereferenceable(1) getelementptr inbounds ([4 x i8], [4 x i8]* @.str, i64 0, i64 0), i32 %54)
  %56 = icmp sgt i64 %52, %27
  br i1 %56, label %50, label %57, !llvm.loop !13

57:                                               ; preds = %50, %46
  %58 = add nsw i64 %15, 1
  %59 = icmp slt i64 %27, %12
  %60 = icmp slt i64 %58, %13
  %61 = select i1 %59, i1 %60, i1 false
  br i1 %61, label %62, label %65

62:                                               ; preds = %57
  %63 = add nsw i64 %13, -1
  %64 = add nsw i64 %12, -1
  br label %10

65:                                               ; preds = %57
  ret void
}

; Function Attrs: argmemonly mustprogress nofree nosync nounwind willreturn
declare void @llvm.lifetime.start.p0i8(i64 immarg, i8* nocapture) #1

; Function Attrs: nofree nounwind
declare noundef i32 @printf(i8* nocapture noundef readonly, ...) local_unnamed_addr #2

; Function Attrs: argmemonly mustprogress nofree nosync nounwind willreturn
declare void @llvm.lifetime.end.p0i8(i64 immarg, i8* nocapture) #1

; Function Attrs: nofree nounwind sspstrong uwtable
define dso_local void @main() local_unnamed_addr #0 {
  %1 = alloca i32, align 4
  %2 = alloca i32, align 4
  %3 = alloca [100 x [100 x i32]], align 16
  %4 = bitcast i32* %1 to i8*
  call void @llvm.lifetime.start.p0i8(i64 4, i8* nonnull %4) #3
  %5 = bitcast i32* %2 to i8*
  call void @llvm.lifetime.start.p0i8(i64 4, i8* nonnull %5) #3
  %6 = bitcast [100 x [100 x i32]]* %3 to i8*
  call void @llvm.lifetime.start.p0i8(i64 40000, i8* nonnull %6) #3
  %7 = call i32 (i8*, ...) @__isoc99_scanf(i8* getelementptr inbounds ([6 x i8], [6 x i8]* @.str.1, i64 0, i64 0), i32* nonnull %2, i32* nonnull %1)
  %8 = load i32, i32* %2, align 4, !tbaa !5
  %9 = icmp sgt i32 %8, 0
  %10 = load i32, i32* %1, align 4, !tbaa !5
  %11 = icmp sgt i32 %10, 0
  %12 = select i1 %9, i1 %11, i1 false
  br i1 %12, label %13, label %34

13:                                               ; preds = %0, %28
  %14 = phi i32 [ %29, %28 ], [ %8, %0 ]
  %15 = phi i32 [ %30, %28 ], [ %10, %0 ]
  %16 = phi i64 [ %31, %28 ], [ 0, %0 ]
  %17 = icmp sgt i32 %15, 0
  br i1 %17, label %18, label %28

18:                                               ; preds = %13, %18
  %19 = phi i64 [ %22, %18 ], [ 0, %13 ]
  %20 = getelementptr inbounds [100 x [100 x i32]], [100 x [100 x i32]]* %3, i64 0, i64 %16, i64 %19
  %21 = call i32 (i8*, ...) @__isoc99_scanf(i8* getelementptr inbounds ([3 x i8], [3 x i8]* @.str.2, i64 0, i64 0), i32* nonnull %20)
  %22 = add nuw nsw i64 %19, 1
  %23 = load i32, i32* %1, align 4, !tbaa !5
  %24 = sext i32 %23 to i64
  %25 = icmp slt i64 %22, %24
  br i1 %25, label %18, label %26, !llvm.loop !14

26:                                               ; preds = %18
  %27 = load i32, i32* %2, align 4, !tbaa !5
  br label %28

28:                                               ; preds = %26, %13
  %29 = phi i32 [ %27, %26 ], [ %14, %13 ]
  %30 = phi i32 [ %23, %26 ], [ %15, %13 ]
  %31 = add nuw nsw i64 %16, 1
  %32 = sext i32 %29 to i64
  %33 = icmp slt i64 %31, %32
  br i1 %33, label %13, label %34, !llvm.loop !15

34:                                               ; preds = %28, %0
  %35 = phi i32 [ %10, %0 ], [ %30, %28 ]
  %36 = phi i32 [ %8, %0 ], [ %29, %28 ]
  %37 = getelementptr inbounds [100 x [100 x i32]], [100 x [100 x i32]]* %3, i64 0, i64 0
  %38 = add nsw i32 %36, -1
  %39 = add nsw i32 %35, -1
  call void @print([100 x i32]* nonnull %37, i32 %38, i32 %39, i32 0, i32 0)
  call void @llvm.lifetime.end.p0i8(i64 40000, i8* nonnull %6) #3
  call void @llvm.lifetime.end.p0i8(i64 4, i8* nonnull %5) #3
  call void @llvm.lifetime.end.p0i8(i64 4, i8* nonnull %4) #3
  ret void
}

; Function Attrs: nofree nounwind
declare noundef i32 @__isoc99_scanf(i8* nocapture noundef readonly, ...) local_unnamed_addr #2


!llvm.module.flags = !{!0, !1, !2, !3}
!llvm.ident = !{!4}

!0 = !{i32 1, !"wchar_size", i32 4}
!1 = !{i32 7, !"PIC Level", i32 2}
!2 = !{i32 7, !"PIE Level", i32 2}
!3 = !{i32 7, !"uwtable", i32 1}
!4 = !{!"clang version 13.0.0"}
!5 = !{!6, !6, i64 0}
!6 = !{!"int", !7, i64 0}
!7 = !{!"omnipotent char", !8, i64 0}
!8 = !{!"Simple C/C++ TBAA"}
!9 = distinct !{!9, !10}
!10 = !{!"llvm.loop.mustprogress"}
!11 = distinct !{!11, !10}
!12 = distinct !{!12, !10}
!13 = distinct !{!13, !10}
!14 = distinct !{!14, !10}
!15 = distinct !{!15, !10, !16}
!16 = !{!"llvm.loop.unswitch.partial.disable"}
